; Function Attrs: mustprogress nofree norecurse nosync nounwind willreturn memory(none) uwtable
define internal noundef i32 @_ZN7glslang12_GLOBAL__N_16op_modEii(i32 noundef %0, i32 noundef %1) #4 {
  %3 = icmp eq i32 %0, -2147483648
  %4 = icmp eq i32 %1, -1
  %or.cond = and i1 %3, %4
  br i1 %or.cond, label %7, label %5

5:                                                ; preds = %2
  %6 = srem i32 %0, %1
  br label %7

7:                                                ; preds = %2, %5
  %8 = phi i32 [ %6, %5 ], [ 0, %2 ]
  ret i32 %8
}